target datalayout = "e-m:e-p270:32:32-p271:32:32-p272:64:64-i64:64-i128:128-f80:128-n8:16:32:64-S128"
target triple = "x86_64-pc-linux-gnu"

@_ZZN33FastUnorderedElapsedCounterSource9frequencyEvE11valid_rdtsc = internal global i8 0, align 1
@_ZGVZN33FastUnorderedElapsedCounterSource9frequencyEvE11valid_rdtsc = internal global i64 0, align 8
@_ZZN33FastUnorderedElapsedCounterSource9frequencyEvE4freq = internal global i64 0, align 8
@_ZGVZN33FastUnorderedElapsedCounterSource9frequencyEvE4freq = internal global i64 0, align 8
@_ZZN33FastUnorderedElapsedCounterSource9frequencyEvE4freq_0 = internal global i64 0, align 8
@_ZGVZN33FastUnorderedElapsedCounterSource9frequencyEvE4freq_0 = internal global i64 0, align 8

; Function Attrs: mustprogress nounwind uwtable
define hidden noundef i64 @_ZN33FastUnorderedElapsedCounterSource9frequencyEv() #1 align 2 {
  %1 = alloca i64, align 8
  %2 = load atomic i8, ptr @_ZGVZN33FastUnorderedElapsedCounterSource9frequencyEvE11valid_rdtsc acquire, align 8
  %3 = icmp eq i8 %2, 0
  br i1 %3, label %4, label %10, !prof !6

4:                                                ; preds = %0
  %5 = call i32 @__cxa_guard_acquire(ptr @_ZGVZN33FastUnorderedElapsedCounterSource9frequencyEvE11valid_rdtsc) #2
  %6 = icmp ne i32 %5, 0
  br i1 %6, label %7, label %10

7:                                                ; preds = %4
  %8 = call noundef zeroext i1 @_ZN5Rdtsc10initializeEv()
  %9 = zext i1 %8 to i8
  store i8 %9, ptr @_ZZN33FastUnorderedElapsedCounterSource9frequencyEvE11valid_rdtsc, align 1
  call void @__cxa_guard_release(ptr @_ZGVZN33FastUnorderedElapsedCounterSource9frequencyEvE11valid_rdtsc) #2
  br label %10

10:                                               ; preds = %7, %4, %0
  %11 = load i8, ptr @_ZZN33FastUnorderedElapsedCounterSource9frequencyEvE11valid_rdtsc, align 1
  %12 = trunc i8 %11 to i1
  br i1 %12, label %13, label %23

13:                                               ; preds = %10
  %14 = load atomic i8, ptr @_ZGVZN33FastUnorderedElapsedCounterSource9frequencyEvE4freq acquire, align 8
  %15 = icmp eq i8 %14, 0
  br i1 %15, label %16, label %21, !prof !6

16:                                               ; preds = %13
  %17 = call i32 @__cxa_guard_acquire(ptr @_ZGVZN33FastUnorderedElapsedCounterSource9frequencyEvE4freq) #2
  %18 = icmp ne i32 %17, 0
  br i1 %18, label %19, label %21

19:                                               ; preds = %16
  %20 = call noundef i64 @_ZN5Rdtsc9frequencyEv()
  store i64 %20, ptr @_ZZN33FastUnorderedElapsedCounterSource9frequencyEvE4freq, align 8
  call void @__cxa_guard_release(ptr @_ZGVZN33FastUnorderedElapsedCounterSource9frequencyEvE4freq) #2
  br label %21

21:                                               ; preds = %19, %16, %13
  %22 = load i64, ptr @_ZZN33FastUnorderedElapsedCounterSource9frequencyEvE4freq, align 8
  store i64 %22, ptr %1, align 8
  br label %33

23:                                               ; preds = %10
  %24 = load atomic i8, ptr @_ZGVZN33FastUnorderedElapsedCounterSource9frequencyEvE4freq_0 acquire, align 8
  %25 = icmp eq i8 %24, 0
  br i1 %25, label %26, label %31, !prof !6

26:                                               ; preds = %23
  %27 = call i32 @__cxa_guard_acquire(ptr @_ZGVZN33FastUnorderedElapsedCounterSource9frequencyEvE4freq_0) #2
  %28 = icmp ne i32 %27, 0
  br i1 %28, label %29, label %31

29:                                               ; preds = %26
  %30 = call noundef i64 @_ZN2os17elapsed_frequencyEv()
  store i64 %30, ptr @_ZZN33FastUnorderedElapsedCounterSource9frequencyEvE4freq_0, align 8
  call void @__cxa_guard_release(ptr @_ZGVZN33FastUnorderedElapsedCounterSource9frequencyEvE4freq_0) #2
  br label %31

31:                                               ; preds = %29, %26, %23
  %32 = load i64, ptr @_ZZN33FastUnorderedElapsedCounterSource9frequencyEvE4freq_0, align 8
  store i64 %32, ptr %1, align 8
  br label %33

33:                                               ; preds = %31, %21
  %34 = load i64, ptr %1, align 8
  ret i64 %34
}