; Function Attrs: mustprogress nounwind uwtable
define hidden noundef i64 @_ZN33FastUnorderedElapsedCounterSource9frequencyEv() local_unnamed_addr #0 align 2 {
  %1 = load atomic i8, ptr @_ZGVZN33FastUnorderedElapsedCounterSource9frequencyEvE11valid_rdtsc acquire, align 8
  %2 = icmp eq i8 %1, 0
  br i1 %2, label %3, label %8, !prof !6

3:                                                ; preds = %0
  %4 = tail call i32 @__cxa_guard_acquire(ptr nonnull @_ZGVZN33FastUnorderedElapsedCounterSource9frequencyEvE11valid_rdtsc) #3
  %.not = icmp eq i32 %4, 0
  br i1 %.not, label %8, label %5

5:                                                ; preds = %3
  %6 = tail call noundef zeroext i1 @_ZN5Rdtsc10initializeEv() #3
  %7 = zext i1 %6 to i8
  store i8 %7, ptr @_ZZN33FastUnorderedElapsedCounterSource9frequencyEvE11valid_rdtsc, align 1
  tail call void @__cxa_guard_release(ptr nonnull @_ZGVZN33FastUnorderedElapsedCounterSource9frequencyEvE11valid_rdtsc) #3
  br label %8

8:                                                ; preds = %5, %3, %0
  %9 = load i8, ptr @_ZZN33FastUnorderedElapsedCounterSource9frequencyEvE11valid_rdtsc, align 1
  %10 = trunc nuw i8 %9 to i1
  br i1 %10, label %11, label %18

11:                                               ; preds = %8
  %12 = load atomic i8, ptr @_ZGVZN33FastUnorderedElapsedCounterSource9frequencyEvE4freq acquire, align 8
  %13 = icmp eq i8 %12, 0
  br i1 %13, label %14, label %25, !prof !6

14:                                               ; preds = %11
  %15 = tail call i32 @__cxa_guard_acquire(ptr nonnull @_ZGVZN33FastUnorderedElapsedCounterSource9frequencyEvE4freq) #3
  %.not2 = icmp eq i32 %15, 0
  br i1 %.not2, label %25, label %16

16:                                               ; preds = %14
  %17 = tail call noundef i64 @_ZN5Rdtsc9frequencyEv() #3
  store i64 %17, ptr @_ZZN33FastUnorderedElapsedCounterSource9frequencyEvE4freq, align 8
  br label %.sink.split

18:                                               ; preds = %8
  %19 = load atomic i8, ptr @_ZGVZN33FastUnorderedElapsedCounterSource9frequencyEvE4freq_0 acquire, align 8
  %20 = icmp eq i8 %19, 0
  br i1 %20, label %21, label %25, !prof !6

21:                                               ; preds = %18
  %22 = tail call i32 @__cxa_guard_acquire(ptr nonnull @_ZGVZN33FastUnorderedElapsedCounterSource9frequencyEvE4freq_0) #3
  %.not1 = icmp eq i32 %22, 0
  br i1 %.not1, label %25, label %23

23:                                               ; preds = %21
  %24 = tail call noundef i64 @_ZN2os17elapsed_frequencyEv() #3
  store i64 %24, ptr @_ZZN33FastUnorderedElapsedCounterSource9frequencyEvE4freq_0, align 8
  br label %.sink.split

.sink.split:                                      ; preds = %16, %23
  %_ZGVZN33FastUnorderedElapsedCounterSource9frequencyEvE4freq_0.sink = phi ptr [ @_ZGVZN33FastUnorderedElapsedCounterSource9frequencyEvE4freq_0, %23 ], [ @_ZGVZN33FastUnorderedElapsedCounterSource9frequencyEvE4freq, %16 ]
  %.0.in.ph = phi ptr [ @_ZZN33FastUnorderedElapsedCounterSource9frequencyEvE4freq_0, %23 ], [ @_ZZN33FastUnorderedElapsedCounterSource9frequencyEvE4freq, %16 ]
  tail call void @__cxa_guard_release(ptr nonnull %_ZGVZN33FastUnorderedElapsedCounterSource9frequencyEvE4freq_0.sink) #3
  br label %25

25:                                               ; preds = %.sink.split, %18, %21, %11, %14
  %.0.in = phi ptr [ @_ZZN33FastUnorderedElapsedCounterSource9frequencyEvE4freq, %14 ], [ @_ZZN33FastUnorderedElapsedCounterSource9frequencyEvE4freq, %11 ], [ @_ZZN33FastUnorderedElapsedCounterSource9frequencyEvE4freq_0, %21 ], [ @_ZZN33FastUnorderedElapsedCounterSource9frequencyEvE4freq_0, %18 ], [ %.0.in.ph, %.sink.split ]
  %.0 = load i64, ptr %.0.in, align 8
  ret i64 %.0
}